; Function Attrs: mustprogress nounwind uwtable
define internal fastcc void @_ZL24emitTooManyOperandsErrorRN4llvm11TreePatternENS_9StringRefEjj(ptr nocapture noundef nonnull align 8 dereferenceable(192) %0, ptr %1, i64 %2, i32 noundef %3, i32 noundef %4) unnamed_addr #0 {
_ZN4llvmplERKNS_5TwineES2_.exit61:
  %5 = alloca %"class.llvm::Twine", align 8
  %6 = alloca %"class.llvm::Twine", align 8
  %7 = alloca %"class.llvm::Twine", align 8
  %8 = alloca %"class.llvm::Twine", align 8
  %9 = alloca %"class.llvm::Twine", align 8
  %10 = alloca %"class.llvm::Twine", align 8
  %11 = getelementptr inbounds nuw i8, ptr %10, i64 32
  store i8 3, ptr %11, align 8, !alias.scope !337
  %12 = getelementptr inbounds nuw i8, ptr %10, i64 33
  store i8 5, ptr %12, align 1, !alias.scope !337
  store ptr @.str.319, ptr %10, align 8, !alias.scope !337
  %13 = getelementptr inbounds nuw i8, ptr %10, i64 16
  store ptr %1, ptr %13, align 8, !alias.scope !337
  %14 = getelementptr inbounds i8, ptr %10, i64 24
  store i64 %2, ptr %14, align 8, !alias.scope !337
  store ptr %10, ptr %9, align 8, !alias.scope !340
  %15 = getelementptr inbounds nuw i8, ptr %9, i64 16
  store ptr @.str.321, ptr %15, align 8, !alias.scope !340
  %16 = getelementptr inbounds nuw i8, ptr %9, i64 32
  store i8 2, ptr %16, align 8, !alias.scope !340
  %17 = getelementptr inbounds nuw i8, ptr %9, i64 33
  store i8 3, ptr %17, align 1, !alias.scope !340
  %.sroa.074.0.insert.ext = zext i32 %4 to i64
  %18 = inttoptr i64 %.sroa.074.0.insert.ext to ptr
  store ptr %9, ptr %8, align 8, !alias.scope !345
  %19 = getelementptr inbounds nuw i8, ptr %8, i64 16
  store ptr %18, ptr %19, align 8, !alias.scope !345
  %20 = getelementptr inbounds nuw i8, ptr %8, i64 32
  store i8 2, ptr %20, align 8, !alias.scope !345
  %21 = getelementptr inbounds nuw i8, ptr %8, i64 33
  store i8 9, ptr %21, align 1, !alias.scope !345
  store ptr %8, ptr %7, align 8, !alias.scope !350
  %22 = getelementptr inbounds nuw i8, ptr %7, i64 16
  store ptr @.str.322, ptr %22, align 8, !alias.scope !350
  %23 = getelementptr inbounds nuw i8, ptr %7, i64 32
  store i8 2, ptr %23, align 8, !alias.scope !350
  %24 = getelementptr inbounds nuw i8, ptr %7, i64 33
  store i8 3, ptr %24, align 1, !alias.scope !350
  %.sroa.063.0.insert.ext = zext i32 %3 to i64
  %25 = inttoptr i64 %.sroa.063.0.insert.ext to ptr
  store ptr %7, ptr %6, align 8, !alias.scope !355
  %26 = getelementptr inbounds nuw i8, ptr %6, i64 16
  store ptr %25, ptr %26, align 8, !alias.scope !355
  %27 = getelementptr inbounds nuw i8, ptr %6, i64 32
  store i8 2, ptr %27, align 8, !alias.scope !355
  %28 = getelementptr inbounds nuw i8, ptr %6, i64 33
  store i8 9, ptr %28, align 1, !alias.scope !355
  store ptr %6, ptr %5, align 8, !alias.scope !360
  %29 = getelementptr inbounds nuw i8, ptr %5, i64 16
  store ptr @.str.191, ptr %29, align 8, !alias.scope !360
  %30 = getelementptr inbounds nuw i8, ptr %5, i64 32
  store i8 2, ptr %30, align 8, !alias.scope !360
  %31 = getelementptr inbounds nuw i8, ptr %5, i64 33
  store i8 3, ptr %31, align 1, !alias.scope !360
  call void @_ZN4llvm11TreePattern5errorERKNS_5TwineE(ptr noundef nonnull align 8 dereferenceable(192) %0, ptr noundef nonnull align 8 dereferenceable(34) %5)
  ret void
}